target datalayout = "e-m:e-p270:32:32-p271:32:32-p272:64:64-i64:64-i128:128-f80:128-n8:16:32:64-S128"
target triple = "x86_64-pc-linux-gnu"

%struct.MultirangeType = type { i32, i32, i32 }
%struct.RangeBound = type { i64, i8, i8, i8 }

; Function Attrs: nounwind uwtable
define dso_local ptr @multirange_get_union_range(ptr noundef %0, ptr noundef %1) #0 {
  %3 = alloca ptr, align 8
  %4 = alloca ptr, align 8
  %5 = alloca ptr, align 8
  %6 = alloca %struct.RangeBound, align 8
  %7 = alloca %struct.RangeBound, align 8
  %8 = alloca %struct.RangeBound, align 8
  %9 = alloca i32, align 4
  store ptr %0, ptr %4, align 8
  store ptr %1, ptr %5, align 8
  call void @llvm.lifetime.start.p0(i64 16, ptr %6) #9
  call void @llvm.lifetime.start.p0(i64 16, ptr %7) #9
  call void @llvm.lifetime.start.p0(i64 16, ptr %8) #9
  %10 = load ptr, ptr %5, align 8
  %11 = getelementptr inbounds nuw %struct.MultirangeType, ptr %10, i32 0, i32 2
  %12 = load i32, ptr %11, align 4
  %13 = icmp eq i32 %12, 0
  br i1 %13, label %14, label %17

14:                                               ; preds = %2
  %15 = load ptr, ptr %4, align 8
  %16 = call ptr @make_empty_range(ptr noundef %15)
  store ptr %16, ptr %3, align 8
  store i32 1, ptr %9, align 4
  br label %28

17:                                               ; preds = %2
  %18 = load ptr, ptr %4, align 8
  %19 = load ptr, ptr %5, align 8
  call void @multirange_get_bounds(ptr noundef %18, ptr noundef %19, i32 noundef 0, ptr noundef %6, ptr noundef %8)
  %20 = load ptr, ptr %4, align 8
  %21 = load ptr, ptr %5, align 8
  %22 = load ptr, ptr %5, align 8
  %23 = getelementptr inbounds nuw %struct.MultirangeType, ptr %22, i32 0, i32 2
  %24 = load i32, ptr %23, align 4
  %25 = sub i32 %24, 1
  call void @multirange_get_bounds(ptr noundef %20, ptr noundef %21, i32 noundef %25, ptr noundef %8, ptr noundef %7)
  %26 = load ptr, ptr %4, align 8
  %27 = call ptr @make_range(ptr noundef %26, ptr noundef %6, ptr noundef %7, i1 noundef zeroext false, ptr noundef null)
  store ptr %27, ptr %3, align 8
  store i32 1, ptr %9, align 4
  br label %28

28:                                               ; preds = %17, %14
  call void @llvm.lifetime.end.p0(i64 16, ptr %8) #9
  call void @llvm.lifetime.end.p0(i64 16, ptr %7) #9
  call void @llvm.lifetime.end.p0(i64 16, ptr %6) #9
  %29 = load ptr, ptr %3, align 8
  ret ptr %29
}