; Function Attrs: nounwind uwtable
define dso_local ptr @multirange_get_union_range(ptr noundef %0, ptr noundef %1) local_unnamed_addr #0 {
  %3 = alloca %struct.RangeBound, align 8
  %4 = alloca %struct.RangeBound, align 8
  %5 = alloca %struct.RangeBound, align 8
  call void @llvm.lifetime.start.p0(i64 16, ptr nonnull %3) #11
  call void @llvm.lifetime.start.p0(i64 16, ptr nonnull %4) #11
  call void @llvm.lifetime.start.p0(i64 16, ptr nonnull %5) #11
  %6 = getelementptr inbounds nuw i8, ptr %1, i64 8
  %7 = load i32, ptr %6, align 4
  %8 = icmp eq i32 %7, 0
  br i1 %8, label %9, label %11

9:                                                ; preds = %2
  %10 = tail call ptr @make_empty_range(ptr noundef %0) #11
  br label %15

11:                                               ; preds = %2
  call void @multirange_get_bounds(ptr noundef %0, ptr noundef nonnull %1, i32 noundef 0, ptr noundef nonnull %3, ptr noundef nonnull %5)
  %12 = load i32, ptr %6, align 4
  %13 = add i32 %12, -1
  call void @multirange_get_bounds(ptr noundef %0, ptr noundef nonnull %1, i32 noundef %13, ptr noundef nonnull %5, ptr noundef nonnull %4)
  %14 = call ptr @make_range(ptr noundef %0, ptr noundef nonnull %3, ptr noundef nonnull %4, i1 noundef zeroext false, ptr noundef null) #11
  br label %15

15:                                               ; preds = %11, %9
  %.0 = phi ptr [ %10, %9 ], [ %14, %11 ]
  call void @llvm.lifetime.end.p0(i64 16, ptr nonnull %5) #11
  call void @llvm.lifetime.end.p0(i64 16, ptr nonnull %4) #11
  call void @llvm.lifetime.end.p0(i64 16, ptr nonnull %3) #11
  ret ptr %.0
}